; Function Attrs: mustprogress uwtable
define void @_ZN32pxrInternal_v0_24__pxrReserved__18HdNurbsPatchSchema7Builder5BuildEv(ptr dead_on_unwind noalias nocapture writable writeonly sret(%"class.std::shared_ptr.0") align 8 %0, ptr nocapture noundef nonnull readonly align 8 dereferenceable(208) %1) local_unnamed_addr #1 align 2 {
  %3 = getelementptr inbounds nuw i8, ptr %1, i64 16
  %4 = getelementptr inbounds nuw i8, ptr %1, i64 32
  %5 = getelementptr inbounds nuw i8, ptr %1, i64 48
  %6 = getelementptr inbounds nuw i8, ptr %1, i64 64
  %7 = getelementptr inbounds nuw i8, ptr %1, i64 80
  %8 = getelementptr inbounds nuw i8, ptr %1, i64 96
  %9 = getelementptr inbounds nuw i8, ptr %1, i64 112
  %10 = getelementptr inbounds nuw i8, ptr %1, i64 128
  %11 = getelementptr inbounds nuw i8, ptr %1, i64 144
  %12 = getelementptr inbounds nuw i8, ptr %1, i64 160
  %13 = getelementptr inbounds nuw i8, ptr %1, i64 176
  %14 = getelementptr inbounds nuw i8, ptr %1, i64 192
  tail call void @_ZN32pxrInternal_v0_24__pxrReserved__18HdNurbsPatchSchema13BuildRetainedERKSt10shared_ptrINS_24HdTypedSampledDataSourceIiEEES6_S6_S6_RKS1_INS2_INS_7VtArrayIdEEEEESC_RKS1_INS2_INS_7TfTokenEEEESH_RKS1_INS2_INS_7GfVec2dEEEESM_RKS1_INS_21HdContainerDataSourceEESH_RKS1_INS2_IbEEE(ptr dead_on_unwind writable sret(%"class.std::shared_ptr.0") align 8 %0, ptr noundef nonnull align 8 dereferenceable(16) %1, ptr noundef nonnull align 8 dereferenceable(16) %3, ptr noundef nonnull align 8 dereferenceable(16) %4, ptr noundef nonnull align 8 dereferenceable(16) %5, ptr noundef nonnull align 8 dereferenceable(16) %6, ptr noundef nonnull align 8 dereferenceable(16) %7, ptr noundef nonnull align 8 dereferenceable(16) %8, ptr noundef nonnull align 8 dereferenceable(16) %9, ptr noundef nonnull align 8 dereferenceable(16) %10, ptr noundef nonnull align 8 dereferenceable(16) %11, ptr noundef nonnull align 8 dereferenceable(16) %12, ptr noundef nonnull align 8 dereferenceable(16) %13, ptr noundef nonnull align 8 dereferenceable(16) %14)
  ret void
}